; ModuleID = '54/632.c'
source_filename = "54/632.c"
target datalayout = "e-m:e-p270:32:32-p271:32:32-p272:64:64-i64:64-f80:128-n8:16:32:64-S128"
target triple = "x86_64-pc-linux-gnu"

@.str = private unnamed_addr constant [5 x i8] c"%d%d\00", align 1
@.str.1 = private unnamed_addr constant [3 x i8] c"%d\00", align 1

; Function Attrs: noinline nounwind uwtable
define dso_local i32 @conduct(i32 %0, i32 %1, i32 %2) #0 {
  %4 = alloca i32, align 4
  %5 = alloca i32, align 4
  %6 = alloca i32, align 4
  %7 = alloca i32, align 4
  %8 = alloca i32, align 4
  %9 = alloca i32, align 4
  %10 = alloca i32, align 4
  store i32 %0, i32* %4, align 4
  store i32 %1, i32* %5, align 4
  store i32 %2, i32* %6, align 4
  store i32 1, i32* %9, align 4
  %11 = load i32, i32* %6, align 4
  %12 = icmp ne i32 %11, 0
  br i1 %12, label %13, label %26

13:                                               ; preds = %3
  %14 = load i32, i32* %4, align 4
  %15 = load i32, i32* %5, align 4
  %16 = load i32, i32* %6, align 4
  %17 = sub nsw i32 %16, 1
  %18 = call i32 @conduct(i32 %14, i32 %15, i32 %17)
  %19 = load i32, i32* %4, align 4
  %20 = sub nsw i32 %19, 1
  %21 = sdiv i32 %18, %20
  %22 = load i32, i32* %4, align 4
  %23 = mul nsw i32 %21, %22
  %24 = load i32, i32* %5, align 4
  %25 = add nsw i32 %23, %24
  store i32 %25, i32* %7, align 4
  br label %70

26:                                               ; preds = %3
  store i32 1, i32* %9, align 4
  br label %27

27:                                               ; preds = %62, %26
  %28 = load i32, i32* %9, align 4
  %29 = load i32, i32* %4, align 4
  %30 = sub nsw i32 %29, 1
  %31 = mul nsw i32 %28, %30
  store i32 %31, i32* %10, align 4
  store i32 0, i32* %8, align 4
  br label %32

32:                                               ; preds = %53, %27
  %33 = load i32, i32* %8, align 4
  %34 = load i32, i32* %4, align 4
  %35 = icmp slt i32 %33, %34
  br i1 %35, label %36, label %56

36:                                               ; preds = %32
  %37 = load i32, i32* %10, align 4
  %38 = load i32, i32* %4, align 4
  %39 = sub nsw i32 %38, 1
  %40 = srem i32 %37, %39
  %41 = icmp eq i32 %40, 0
  br i1 %41, label %42, label %51

42:                                               ; preds = %36
  %43 = load i32, i32* %10, align 4
  %44 = load i32, i32* %4, align 4
  %45 = sub nsw i32 %44, 1
  %46 = sdiv i32 %43, %45
  %47 = load i32, i32* %4, align 4
  %48 = mul nsw i32 %46, %47
  %49 = load i32, i32* %5, align 4
  %50 = add nsw i32 %48, %49
  store i32 %50, i32* %10, align 4
  br label %52

51:                                               ; preds = %36
  br label %56

52:                                               ; preds = %42
  br label %53

53:                                               ; preds = %52
  %54 = load i32, i32* %8, align 4
  %55 = add nsw i32 %54, 1
  store i32 %55, i32* %8, align 4
  br label %32

56:                                               ; preds = %51, %32
  %57 = load i32, i32* %8, align 4
  %58 = load i32, i32* %4, align 4
  %59 = icmp eq i32 %57, %58
  br i1 %59, label %60, label %61

60:                                               ; preds = %56
  br label %65

61:                                               ; preds = %56
  br label %62

62:                                               ; preds = %61
  %63 = load i32, i32* %9, align 4
  %64 = add nsw i32 %63, 1
  store i32 %64, i32* %9, align 4
  br label %27

65:                                               ; preds = %60
  %66 = load i32, i32* %9, align 4
  %67 = load i32, i32* %4, align 4
  %68 = sub nsw i32 %67, 1
  %69 = mul nsw i32 %66, %68
  store i32 %69, i32* %7, align 4
  br label %70

70:                                               ; preds = %65, %13
  %71 = load i32, i32* %7, align 4
  ret i32 %71
}

; Function Attrs: noinline nounwind uwtable
define dso_local void @main() #0 {
  %1 = alloca i32, align 4
  %2 = alloca i32, align 4
  %3 = call i32 (i8*, ...) @__isoc99_scanf(i8* getelementptr inbounds ([5 x i8], [5 x i8]* @.str, i64 0, i64 0), i32* %1, i32* %2)
  %4 = load i32, i32* %1, align 4
  %5 = load i32, i32* %2, align 4
  %6 = load i32, i32* %1, align 4
  %7 = call i32 @conduct(i32 %4, i32 %5, i32 %6)
  %8 = call i32 (i8*, ...) @printf(i8* getelementptr inbounds ([3 x i8], [3 x i8]* @.str.1, i64 0, i64 0), i32 %7)
  ret void
}

declare dso_local i32 @__isoc99_scanf(i8*, ...) #1

declare dso_local i32 @printf(i8*, ...) #1


!llvm.module.flags = !{!0}
!llvm.ident = !{!1}

!0 = !{i32 1, !"wchar_size", i32 4}
!1 = !{!"clang version 10.0.0-4ubuntu1 "}
