; ModuleID = 'source-C-CXX/53/632.c'
source_filename = "source-C-CXX/53/632.c"
target datalayout = "e-m:e-p270:32:32-p271:32:32-p272:64:64-i64:64-f80:128-n8:16:32:64-S128"
target triple = "x86_64-pc-linux-gnu"

@.str = private unnamed_addr constant [5 x i8] c"%d%d\00", align 1
@.str.1 = private unnamed_addr constant [3 x i8] c"%d\00", align 1

; Function Attrs: nofree nosync nounwind readnone sspstrong uwtable
define dso_local i32 @conduct(i32 %0, i32 %1, i32 %2) local_unnamed_addr #0 {
  %4 = icmp eq i32 %2, 0
  br i1 %4, label %5, label %29

5:                                                ; preds = %3
  %6 = add nsw i32 %0, -1
  %7 = icmp sgt i32 %0, 0
  br i1 %7, label %8, label %25

8:                                                ; preds = %5, %17
  %9 = phi i32 [ %19, %17 ], [ 1, %5 ]
  %10 = mul nsw i32 %9, %6
  br label %11

11:                                               ; preds = %8, %20
  %12 = phi i32 [ %10, %8 ], [ %22, %20 ]
  %13 = phi i32 [ 0, %8 ], [ %23, %20 ]
  %14 = srem i32 %12, %6
  %15 = sdiv i32 %12, %6
  %16 = icmp eq i32 %14, 0
  br i1 %16, label %20, label %17

17:                                               ; preds = %11
  %18 = icmp eq i32 %13, %0
  %19 = add nuw nsw i32 %9, 1
  br i1 %18, label %27, label %8

20:                                               ; preds = %11
  %21 = mul nsw i32 %15, %0
  %22 = add nsw i32 %21, %1
  %23 = add nuw nsw i32 %13, 1
  %24 = icmp eq i32 %23, %0
  br i1 %24, label %27, label %11, !llvm.loop !5

25:                                               ; preds = %5
  %26 = icmp eq i32 %0, 0
  br i1 %26, label %27, label %36

27:                                               ; preds = %17, %20, %25, %29
  %28 = phi i32 [ %35, %29 ], [ -1, %25 ], [ %10, %20 ], [ %10, %17 ]
  ret i32 %28

29:                                               ; preds = %3
  %30 = add nsw i32 %2, -1
  %31 = tail call i32 @conduct(i32 %0, i32 %1, i32 %30)
  %32 = add nsw i32 %0, -1
  %33 = sdiv i32 %31, %32
  %34 = mul nsw i32 %33, %0
  %35 = add nsw i32 %34, %1
  br label %27

36:                                               ; preds = %25, %36
  br label %36
}

; Function Attrs: argmemonly mustprogress nofree nosync nounwind willreturn
declare void @llvm.lifetime.start.p0i8(i64 immarg, i8* nocapture) #1

; Function Attrs: argmemonly mustprogress nofree nosync nounwind willreturn
declare void @llvm.lifetime.end.p0i8(i64 immarg, i8* nocapture) #1

; Function Attrs: nofree nounwind sspstrong uwtable
define dso_local void @main() local_unnamed_addr #2 {
  %1 = alloca i32, align 4
  %2 = alloca i32, align 4
  %3 = bitcast i32* %1 to i8*
  call void @llvm.lifetime.start.p0i8(i64 4, i8* nonnull %3) #4
  %4 = bitcast i32* %2 to i8*
  call void @llvm.lifetime.start.p0i8(i64 4, i8* nonnull %4) #4
  %5 = call i32 (i8*, ...) @__isoc99_scanf(i8* getelementptr inbounds ([5 x i8], [5 x i8]* @.str, i64 0, i64 0), i32* nonnull %1, i32* nonnull %2)
  %6 = load i32, i32* %1, align 4, !tbaa !7
  %7 = load i32, i32* %2, align 4, !tbaa !7
  %8 = call i32 @conduct(i32 %6, i32 %7, i32 %6)
  %9 = call i32 (i8*, ...) @printf(i8* nonnull dereferenceable(1) getelementptr inbounds ([3 x i8], [3 x i8]* @.str.1, i64 0, i64 0), i32 %8)
  call void @llvm.lifetime.end.p0i8(i64 4, i8* nonnull %4) #4
  call void @llvm.lifetime.end.p0i8(i64 4, i8* nonnull %3) #4
  ret void
}

; Function Attrs: nofree nounwind
declare noundef i32 @__isoc99_scanf(i8* nocapture noundef readonly, ...) local_unnamed_addr #3

; Function Attrs: nofree nounwind
declare noundef i32 @printf(i8* nocapture noundef readonly, ...) local_unnamed_addr #3


!llvm.module.flags = !{!0, !1, !2, !3}
!llvm.ident = !{!4}

!0 = !{i32 1, !"wchar_size", i32 4}
!1 = !{i32 7, !"PIC Level", i32 2}
!2 = !{i32 7, !"PIE Level", i32 2}
!3 = !{i32 7, !"uwtable", i32 1}
!4 = !{!"clang version 13.0.0"}
!5 = distinct !{!5, !6}
!6 = !{!"llvm.loop.mustprogress"}
!7 = !{!8, !8, i64 0}
!8 = !{!"int", !9, i64 0}
!9 = !{!"omnipotent char", !10, i64 0}
!10 = !{!"Simple C/C++ TBAA"}
